target datalayout = "e-m:e-p270:32:32-p271:32:32-p272:64:64-i64:64-i128:128-f80:128-n8:16:32:64-S128"
target triple = "x86_64-pc-linux-gnu"

%struct.b3OverlapCallback = type { ptr }
%class.RemovePairCallback = type <{ %struct.b3OverlapCallback, i32, [4 x i8] }>

@_ZTV17b3OverlapCallback = linkonce_odr dso_local unnamed_addr constant { [5 x ptr] } { [5 x ptr] [ptr null, ptr @_ZTI17b3OverlapCallback, ptr @_ZN17b3OverlapCallbackD2Ev, ptr @_ZN17b3OverlapCallbackD0Ev, ptr @__cxa_pure_virtual] }, comdat, align 8

; Function Attrs: inlinehint mustprogress nounwind uwtable
define linkonce_odr dso_local void @_ZN17b3OverlapCallbackC2Ev(ptr noundef nonnull align 8 dereferenceable(8) %0) unnamed_addr #1 comdat align 2 {
  %2 = alloca ptr, align 8
  store ptr %0, ptr %2, align 8, !tbaa !63
  %3 = load ptr, ptr %2, align 8
  store ptr getelementptr inbounds inrange(-16, 24) ({ [5 x ptr] }, ptr @_ZTV17b3OverlapCallback, i32 0, i32 0, i32 2), ptr %3, align 8, !tbaa !9
  ret void
}

; Function Attrs: mustprogress nounwind uwtable
define linkonce_odr dso_local void @_ZN17b3OverlapCallbackD2Ev(ptr noundef nonnull align 8 dereferenceable(8) %0) unnamed_addr #4 comdat align 2 {
  %2 = alloca ptr, align 8
  store ptr %0, ptr %2, align 8, !tbaa !63
  ret void
}

; Function Attrs: mustprogress nounwind uwtable
define internal void @_ZZN28b3HashedOverlappingPairCache37removeOverlappingPairsContainingProxyEiP12b3DispatcherEN18RemovePairCallbackC2Ei(ptr noundef nonnull align 8 dereferenceable(12) %0, i32 noundef %1) unnamed_addr #4 align 2 {
  %3 = alloca ptr, align 8
  %4 = alloca i32, align 4
  store ptr %0, ptr %3, align 8, !tbaa !49
  store i32 %1, ptr %4, align 4, !tbaa !23
  %5 = load ptr, ptr %3, align 8
  call void @_ZN17b3OverlapCallbackC2Ev(ptr noundef nonnull align 8 dereferenceable(8) %5) #10
  store ptr getelementptr inbounds inrange(-16, 24) ({ [5 x ptr] }, ptr @_ZTVZN28b3HashedOverlappingPairCache37removeOverlappingPairsContainingProxyEiP12b3DispatcherE18RemovePairCallback, i32 0, i32 0, i32 2), ptr %5, align 8, !tbaa !9
  %6 = getelementptr inbounds nuw %class.RemovePairCallback, ptr %5, i32 0, i32 1
  %7 = load i32, ptr %4, align 4, !tbaa !23
  store i32 %7, ptr %6, align 8, !tbaa !51
  ret void
}

; Function Attrs: mustprogress uwtable
define dso_local void @_ZN28b3HashedOverlappingPairCache37removeOverlappingPairsContainingProxyEiP12b3Dispatcher(ptr noundef nonnull align 8 dereferenceable(112) %0, i32 noundef %1, ptr noundef %2) unnamed_addr #0 align 2 personality ptr @__gxx_personality_v0 {
  %4 = alloca ptr, align 8
  %5 = alloca i32, align 4
  %6 = alloca ptr, align 8
  %7 = alloca %class.RemovePairCallback, align 8
  %8 = alloca ptr, align 8
  %9 = alloca i32, align 4
  store ptr %0, ptr %4, align 8, !tbaa !4
  store i32 %1, ptr %5, align 4, !tbaa !23
  store ptr %2, ptr %6, align 8, !tbaa !40
  %10 = load ptr, ptr %4, align 8
  call void @llvm.lifetime.start.p0(i64 16, ptr %7) #10
  %11 = load i32, ptr %5, align 4, !tbaa !23
  call void @_ZZN28b3HashedOverlappingPairCache37removeOverlappingPairsContainingProxyEiP12b3DispatcherEN18RemovePairCallbackC2Ei(ptr noundef nonnull align 8 dereferenceable(12) %7, i32 noundef %11)
  %12 = load ptr, ptr %6, align 8, !tbaa !40
  %13 = load ptr, ptr %10, align 8, !tbaa !9
  %14 = getelementptr inbounds ptr, ptr %13, i64 9
  %15 = load ptr, ptr %14, align 8
  invoke void %15(ptr noundef nonnull align 8 dereferenceable(112) %10, ptr noundef %7, ptr noundef %12)
          to label %16 unwind label %17

16:                                               ; preds = %3
  call void @_ZN17b3OverlapCallbackD2Ev(ptr noundef nonnull align 8 dereferenceable(12) %7) #10
  call void @llvm.lifetime.end.p0(i64 16, ptr %7) #10
  ret void

17:                                               ; preds = %3
  %18 = landingpad { ptr, i32 }
          cleanup
  %19 = extractvalue { ptr, i32 } %18, 0
  store ptr %19, ptr %8, align 8
  %20 = extractvalue { ptr, i32 } %18, 1
  store i32 %20, ptr %9, align 4
  call void @_ZN17b3OverlapCallbackD2Ev(ptr noundef nonnull align 8 dereferenceable(12) %7) #10
  call void @llvm.lifetime.end.p0(i64 16, ptr %7) #10
  br label %21

21:                                               ; preds = %17
  %22 = load ptr, ptr %8, align 8
  %23 = load i32, ptr %9, align 4
  %24 = insertvalue { ptr, i32 } poison, ptr %22, 0
  %25 = insertvalue { ptr, i32 } %24, i32 %23, 1
  resume { ptr, i32 } %25
}